target datalayout = "e-m:e-p270:32:32-p271:32:32-p272:64:64-i64:64-i128:128-f80:128-n8:16:32:64-S128"
target triple = "x86_64-pc-linux-gnu"

%"struct.google::protobuf::internal::UTF8StateMachineObj" = type { i32, i32, i32, i32, i32, i32, i32, i32, ptr, ptr, ptr, ptr }

; Function Attrs: mustprogress nounwind uwtable
define internal noundef zeroext i1 @_ZN6google8protobuf8internalL11InStateZeroEPKNS1_19UTF8StateMachineObjEPKh(ptr noundef %0, ptr noundef %1) #5 {
  %3 = alloca ptr, align 8
  %4 = alloca ptr, align 8
  %5 = alloca ptr, align 8
  store ptr %0, ptr %3, align 8
  store ptr %1, ptr %4, align 8
  %6 = load ptr, ptr %3, align 8
  %7 = getelementptr inbounds %"struct.google::protobuf::internal::UTF8StateMachineObj", ptr %6, i32 0, i32 8
  %8 = load ptr, ptr %7, align 8
  %9 = load ptr, ptr %3, align 8
  %10 = getelementptr inbounds %"struct.google::protobuf::internal::UTF8StateMachineObj", ptr %9, i32 0, i32 0
  %11 = load i32, ptr %10, align 8
  %12 = zext i32 %11 to i64
  %13 = getelementptr inbounds i8, ptr %8, i64 %12
  store ptr %13, ptr %5, align 8
  %14 = load ptr, ptr %4, align 8
  %15 = load ptr, ptr %5, align 8
  %16 = ptrtoint ptr %14 to i64
  %17 = ptrtoint ptr %15 to i64
  %18 = sub i64 %16, %17
  %19 = trunc i64 %18 to i32
  %20 = load ptr, ptr %3, align 8
  %21 = getelementptr inbounds %"struct.google::protobuf::internal::UTF8StateMachineObj", ptr %20, i32 0, i32 1
  %22 = load i32, ptr %21, align 4
  %23 = icmp ult i32 %19, %22
  ret i1 %23
}

; Function Attrs: mustprogress uwtable
define noundef i32 @_ZN6google8protobuf8internal15UTF8GenericScanEPKNS1_19UTF8StateMachineObjEPKciPi(ptr noundef %0, ptr noundef %1, i32 noundef %2, ptr noundef %3) #4 {
  %5 = alloca i32, align 4
  %6 = alloca ptr, align 8
  %7 = alloca ptr, align 8
  %8 = alloca i32, align 4
  %9 = alloca ptr, align 8
  %10 = alloca i32, align 4
  %11 = alloca ptr, align 8
  %12 = alloca ptr, align 8
  %13 = alloca ptr, align 8
  %14 = alloca ptr, align 8
  %15 = alloca ptr, align 8
  %16 = alloca i32, align 4
  %17 = alloca i8, align 1
  %18 = alloca ptr, align 8
  %19 = alloca i32, align 4
  %20 = alloca i32, align 4
  %21 = alloca i32, align 4
  %22 = alloca i32, align 4
  %23 = alloca i32, align 4
  %24 = alloca i32, align 4
  %25 = alloca ptr, align 8
  store ptr %0, ptr %6, align 8
  store ptr %1, ptr %7, align 8
  store i32 %2, ptr %8, align 4
  store ptr %3, ptr %9, align 8
  %26 = load ptr, ptr %9, align 8
  store i32 0, ptr %26, align 4
  %27 = load i32, ptr %8, align 4
  %28 = icmp eq i32 %27, 0
  br i1 %28, label %29, label %30

29:                                               ; preds = %4
  store i32 241, ptr %5, align 4
  br label %306

30:                                               ; preds = %4
  %31 = load ptr, ptr %6, align 8
  %32 = getelementptr inbounds %"struct.google::protobuf::internal::UTF8StateMachineObj", ptr %31, i32 0, i32 4
  %33 = load i32, ptr %32, align 8
  store i32 %33, ptr %10, align 4
  %34 = load ptr, ptr %7, align 8
  store ptr %34, ptr %11, align 8
  %35 = load ptr, ptr %11, align 8
  store ptr %35, ptr %12, align 8
  %36 = load ptr, ptr %11, align 8
  %37 = load i32, ptr %8, align 4
  %38 = sext i32 %37 to i64
  %39 = getelementptr inbounds i8, ptr %36, i64 %38
  store ptr %39, ptr %13, align 8
  %40 = load i32, ptr %8, align 4
  %41 = icmp slt i32 %40, 7
  br i1 %41, label %42, label %44

42:                                               ; preds = %30
  %43 = load ptr, ptr %11, align 8
  br label %47

44:                                               ; preds = %30
  %45 = load ptr, ptr %13, align 8
  %46 = getelementptr inbounds i8, ptr %45, i64 -7
  br label %47

47:                                               ; preds = %44, %42
  %48 = phi ptr [ %43, %42 ], [ %46, %44 ]
  store ptr %48, ptr %14, align 8
  %49 = load ptr, ptr %6, align 8
  %50 = getelementptr inbounds %"struct.google::protobuf::internal::UTF8StateMachineObj", ptr %49, i32 0, i32 8
  %51 = load ptr, ptr %50, align 8
  %52 = load ptr, ptr %6, align 8
  %53 = getelementptr inbounds %"struct.google::protobuf::internal::UTF8StateMachineObj", ptr %52, i32 0, i32 0
  %54 = load i32, ptr %53, align 8
  %55 = zext i32 %54 to i64
  %56 = getelementptr inbounds i8, ptr %51, i64 %55
  store ptr %56, ptr %15, align 8
  br label %57

57:                                               ; preds = %296, %47
  store i32 0, ptr %16, align 4
  %58 = load ptr, ptr %6, align 8
  %59 = getelementptr inbounds %"struct.google::protobuf::internal::UTF8StateMachineObj", ptr %58, i32 0, i32 11
  %60 = load ptr, ptr %59, align 8
  %61 = getelementptr inbounds i8, ptr %60, i64 0
  store ptr %61, ptr %18, align 8
  %62 = load ptr, ptr %6, align 8
  %63 = getelementptr inbounds %"struct.google::protobuf::internal::UTF8StateMachineObj", ptr %62, i32 0, i32 6
  %64 = load i32, ptr %63, align 8
  store i32 %64, ptr %19, align 4
  %65 = load ptr, ptr %6, align 8
  %66 = getelementptr inbounds %"struct.google::protobuf::internal::UTF8StateMachineObj", ptr %65, i32 0, i32 7
  %67 = load i32, ptr %66, align 4
  store i32 %67, ptr %20, align 4
  br label %68

68:                                               ; preds = %89, %57
  %69 = load ptr, ptr %12, align 8
  %70 = ptrtoint ptr %69 to i64
  %71 = and i64 %70, 7
  %72 = icmp ne i64 %71, 0
  br i1 %72, label %73, label %87

73:                                               ; preds = %68
  %74 = load ptr, ptr %12, align 8
  %75 = load ptr, ptr %13, align 8
  %76 = icmp ult ptr %74, %75
  br i1 %76, label %77, label %87

77:                                               ; preds = %73
  %78 = load ptr, ptr %18, align 8
  %79 = load ptr, ptr %12, align 8
  %80 = getelementptr inbounds i8, ptr %79, i64 0
  %81 = load i8, ptr %80, align 1
  %82 = zext i8 %81 to i64
  %83 = getelementptr inbounds i8, ptr %78, i64 %82
  %84 = load i8, ptr %83, align 1
  %85 = zext i8 %84 to i32
  %86 = icmp eq i32 %85, 0
  br label %87

87:                                               ; preds = %77, %73, %68
  %88 = phi i1 [ false, %73 ], [ false, %68 ], [ %86, %77 ]
  br i1 %88, label %89, label %92

89:                                               ; preds = %87
  %90 = load ptr, ptr %12, align 8
  %91 = getelementptr inbounds i8, ptr %90, i32 1
  store ptr %91, ptr %12, align 8
  br label %68, !llvm.loop !4

92:                                               ; preds = %87
  %93 = load ptr, ptr %12, align 8
  %94 = ptrtoint ptr %93 to i64
  %95 = and i64 %94, 7
  %96 = icmp eq i64 %95, 0
  br i1 %96, label %97, label %214

97:                                               ; preds = %92
  br label %98

98:                                               ; preds = %212, %97
  %99 = load ptr, ptr %12, align 8
  %100 = load ptr, ptr %14, align 8
  %101 = icmp ult ptr %99, %100
  br i1 %101, label %102, label %213

102:                                              ; preds = %98
  %103 = load ptr, ptr %12, align 8
  %104 = getelementptr inbounds i32, ptr %103, i64 0
  %105 = load i32, ptr %104, align 4
  store i32 %105, ptr %21, align 4
  %106 = load ptr, ptr %12, align 8
  %107 = getelementptr inbounds i32, ptr %106, i64 1
  %108 = load i32, ptr %107, align 4
  store i32 %108, ptr %22, align 4
  %109 = load ptr, ptr %12, align 8
  %110 = getelementptr inbounds i8, ptr %109, i64 8
  store ptr %110, ptr %12, align 8
  %111 = load i32, ptr %21, align 4
  %112 = load i32, ptr %19, align 4
  %113 = sub i32 %111, %112
  %114 = load i32, ptr %21, align 4
  %115 = load i32, ptr %20, align 4
  %116 = add i32 %114, %115
  %117 = or i32 %113, %116
  %118 = load i32, ptr %22, align 4
  %119 = load i32, ptr %19, align 4
  %120 = sub i32 %118, %119
  %121 = or i32 %117, %120
  %122 = load i32, ptr %22, align 4
  %123 = load i32, ptr %20, align 4
  %124 = add i32 %122, %123
  %125 = or i32 %121, %124
  store i32 %125, ptr %23, align 4
  %126 = load i32, ptr %23, align 4
  %127 = and i32 %126, -2139062144
  %128 = icmp ne i32 %127, 0
  br i1 %128, label %129, label %212

129:                                              ; preds = %102
  %130 = load ptr, ptr %18, align 8
  %131 = load ptr, ptr %12, align 8
  %132 = getelementptr inbounds i8, ptr %131, i64 -8
  %133 = load i8, ptr %132, align 1
  %134 = zext i8 %133 to i64
  %135 = getelementptr inbounds i8, ptr %130, i64 %134
  %136 = load i8, ptr %135, align 1
  %137 = zext i8 %136 to i32
  %138 = load ptr, ptr %18, align 8
  %139 = load ptr, ptr %12, align 8
  %140 = getelementptr inbounds i8, ptr %139, i64 -7
  %141 = load i8, ptr %140, align 1
  %142 = zext i8 %141 to i64
  %143 = getelementptr inbounds i8, ptr %138, i64 %142
  %144 = load i8, ptr %143, align 1
  %145 = zext i8 %144 to i32
  %146 = or i32 %137, %145
  %147 = load ptr, ptr %18, align 8
  %148 = load ptr, ptr %12, align 8
  %149 = getelementptr inbounds i8, ptr %148, i64 -6
  %150 = load i8, ptr %149, align 1
  %151 = zext i8 %150 to i64
  %152 = getelementptr inbounds i8, ptr %147, i64 %151
  %153 = load i8, ptr %152, align 1
  %154 = zext i8 %153 to i32
  %155 = load ptr, ptr %18, align 8
  %156 = load ptr, ptr %12, align 8
  %157 = getelementptr inbounds i8, ptr %156, i64 -5
  %158 = load i8, ptr %157, align 1
  %159 = zext i8 %158 to i64
  %160 = getelementptr inbounds i8, ptr %155, i64 %159
  %161 = load i8, ptr %160, align 1
  %162 = zext i8 %161 to i32
  %163 = or i32 %154, %162
  %164 = or i32 %146, %163
  store i32 %164, ptr %24, align 4
  %165 = load i32, ptr %24, align 4
  %166 = icmp ne i32 %165, 0
  br i1 %166, label %167, label %170

167:                                              ; preds = %129
  %168 = load ptr, ptr %12, align 8
  %169 = getelementptr inbounds i8, ptr %168, i64 -8
  store ptr %169, ptr %12, align 8
  br label %213

170:                                              ; preds = %129
  %171 = load ptr, ptr %18, align 8
  %172 = load ptr, ptr %12, align 8
  %173 = getelementptr inbounds i8, ptr %172, i64 -4
  %174 = load i8, ptr %173, align 1
  %175 = zext i8 %174 to i64
  %176 = getelementptr inbounds i8, ptr %171, i64 %175
  %177 = load i8, ptr %176, align 1
  %178 = zext i8 %177 to i32
  %179 = load ptr, ptr %18, align 8
  %180 = load ptr, ptr %12, align 8
  %181 = getelementptr inbounds i8, ptr %180, i64 -3
  %182 = load i8, ptr %181, align 1
  %183 = zext i8 %182 to i64
  %184 = getelementptr inbounds i8, ptr %179, i64 %183
  %185 = load i8, ptr %184, align 1
  %186 = zext i8 %185 to i32
  %187 = or i32 %178, %186
  %188 = load ptr, ptr %18, align 8
  %189 = load ptr, ptr %12, align 8
  %190 = getelementptr inbounds i8, ptr %189, i64 -2
  %191 = load i8, ptr %190, align 1
  %192 = zext i8 %191 to i64
  %193 = getelementptr inbounds i8, ptr %188, i64 %192
  %194 = load i8, ptr %193, align 1
  %195 = zext i8 %194 to i32
  %196 = load ptr, ptr %18, align 8
  %197 = load ptr, ptr %12, align 8
  %198 = getelementptr inbounds i8, ptr %197, i64 -1
  %199 = load i8, ptr %198, align 1
  %200 = zext i8 %199 to i64
  %201 = getelementptr inbounds i8, ptr %196, i64 %200
  %202 = load i8, ptr %201, align 1
  %203 = zext i8 %202 to i32
  %204 = or i32 %195, %203
  %205 = or i32 %187, %204
  store i32 %205, ptr %24, align 4
  %206 = load i32, ptr %24, align 4
  %207 = icmp ne i32 %206, 0
  br i1 %207, label %208, label %211

208:                                              ; preds = %170
  %209 = load ptr, ptr %12, align 8
  %210 = getelementptr inbounds i8, ptr %209, i64 -4
  store ptr %210, ptr %12, align 8
  br label %213

211:                                              ; preds = %170
  br label %212

212:                                              ; preds = %211, %102
  br label %98, !llvm.loop !6

213:                                              ; preds = %208, %167, %98
  br label %214

214:                                              ; preds = %213, %92
  %215 = load ptr, ptr %15, align 8
  store ptr %215, ptr %25, align 8
  br label %216

216:                                              ; preds = %234, %214
  %217 = load ptr, ptr %12, align 8
  %218 = load ptr, ptr %13, align 8
  %219 = icmp ult ptr %217, %218
  br i1 %219, label %220, label %241

220:                                              ; preds = %216
  %221 = load ptr, ptr %12, align 8
  %222 = load i8, ptr %221, align 1
  store i8 %222, ptr %17, align 1
  %223 = load ptr, ptr %25, align 8
  %224 = load i8, ptr %17, align 1
  %225 = zext i8 %224 to i64
  %226 = getelementptr inbounds i8, ptr %223, i64 %225
  %227 = load i8, ptr %226, align 1
  %228 = zext i8 %227 to i32
  store i32 %228, ptr %16, align 4
  %229 = load ptr, ptr %12, align 8
  %230 = getelementptr inbounds i8, ptr %229, i32 1
  store ptr %230, ptr %12, align 8
  %231 = load i32, ptr %16, align 4
  %232 = icmp sge i32 %231, 240
  br i1 %232, label %233, label %234

233:                                              ; preds = %220
  br label %241

234:                                              ; preds = %220
  %235 = load ptr, ptr %15, align 8
  %236 = load i32, ptr %16, align 4
  %237 = load i32, ptr %10, align 4
  %238 = shl i32 %236, %237
  %239 = sext i32 %238 to i64
  %240 = getelementptr inbounds i8, ptr %235, i64 %239
  store ptr %240, ptr %25, align 8
  br label %216, !llvm.loop !7

241:                                              ; preds = %233, %216
  %242 = load i32, ptr %16, align 4
  %243 = icmp sge i32 %242, 240
  br i1 %243, label %244, label %269

244:                                              ; preds = %241
  %245 = load ptr, ptr %12, align 8
  %246 = getelementptr inbounds i8, ptr %245, i32 -1
  store ptr %246, ptr %12, align 8
  %247 = load ptr, ptr %6, align 8
  %248 = load ptr, ptr %25, align 8
  %249 = call noundef zeroext i1 @_ZN6google8protobuf8internalL11InStateZeroEPKNS1_19UTF8StateMachineObjEPKh(ptr noundef %247, ptr noundef %248)
  br i1 %249, label %268, label %250

250:                                              ; preds = %244
  br label %251

251:                                              ; preds = %265, %250
  %252 = load ptr, ptr %12, align 8
  %253 = getelementptr inbounds i8, ptr %252, i32 -1
  store ptr %253, ptr %12, align 8
  br label %254

254:                                              ; preds = %251
  %255 = load ptr, ptr %12, align 8
  %256 = load ptr, ptr %11, align 8
  %257 = icmp ugt ptr %255, %256
  br i1 %257, label %258, label %265

258:                                              ; preds = %254
  %259 = load ptr, ptr %12, align 8
  %260 = getelementptr inbounds i8, ptr %259, i64 0
  %261 = load i8, ptr %260, align 1
  %262 = zext i8 %261 to i32
  %263 = and i32 %262, 192
  %264 = icmp eq i32 %263, 128
  br label %265

265:                                              ; preds = %258, %254
  %266 = phi i1 [ false, %254 ], [ %264, %258 ]
  br i1 %266, label %251, label %267, !llvm.loop !8

267:                                              ; preds = %265
  br label %268

268:                                              ; preds = %267, %244
  br label %293

269:                                              ; preds = %241
  %270 = load ptr, ptr %6, align 8
  %271 = load ptr, ptr %25, align 8
  %272 = call noundef zeroext i1 @_ZN6google8protobuf8internalL11InStateZeroEPKNS1_19UTF8StateMachineObjEPKh(ptr noundef %270, ptr noundef %271)
  br i1 %272, label %291, label %273

273:                                              ; preds = %269
  store i32 240, ptr %16, align 4
  br label %274

274:                                              ; preds = %288, %273
  %275 = load ptr, ptr %12, align 8
  %276 = getelementptr inbounds i8, ptr %275, i32 -1
  store ptr %276, ptr %12, align 8
  br label %277

277:                                              ; preds = %274
  %278 = load ptr, ptr %12, align 8
  %279 = load ptr, ptr %11, align 8
  %280 = icmp ugt ptr %278, %279
  br i1 %280, label %281, label %288

281:                                              ; preds = %277
  %282 = load ptr, ptr %12, align 8
  %283 = getelementptr inbounds i8, ptr %282, i64 0
  %284 = load i8, ptr %283, align 1
  %285 = zext i8 %284 to i32
  %286 = and i32 %285, 192
  %287 = icmp eq i32 %286, 128
  br label %288

288:                                              ; preds = %281, %277
  %289 = phi i1 [ false, %277 ], [ %287, %281 ]
  br i1 %289, label %274, label %290, !llvm.loop !9

290:                                              ; preds = %288
  br label %292

291:                                              ; preds = %269
  store i32 241, ptr %16, align 4
  br label %292

292:                                              ; preds = %291, %290
  br label %293

293:                                              ; preds = %292, %268
  %294 = load i32, ptr %16, align 4
  %295 = icmp eq i32 %294, 253
  br i1 %295, label %296, label %297

296:                                              ; preds = %293
  br label %57

297:                                              ; preds = %293
  %298 = load ptr, ptr %12, align 8
  %299 = load ptr, ptr %11, align 8
  %300 = ptrtoint ptr %298 to i64
  %301 = ptrtoint ptr %299 to i64
  %302 = sub i64 %300, %301
  %303 = trunc i64 %302 to i32
  %304 = load ptr, ptr %9, align 8
  store i32 %303, ptr %304, align 4
  %305 = load i32, ptr %16, align 4
  store i32 %305, ptr %5, align 4
  br label %306

306:                                              ; preds = %297, %29
  %307 = load i32, ptr %5, align 4
  ret i32 %307
}