; Function Attrs: mustprogress nofree norecurse nosync nounwind memory(read, argmem: readwrite, inaccessiblemem: none) uwtable
define noundef range(i32 240, 256) i32 @_ZN6google8protobuf8internal15UTF8GenericScanEPKNS1_19UTF8StateMachineObjEPKciPi(ptr nocapture noundef readonly %0, ptr noundef %1, i32 noundef %2, ptr nocapture noundef writeonly %3) local_unnamed_addr #3 {
  store i32 0, ptr %3, align 4
  %5 = icmp eq i32 %2, 0
  br i1 %5, label %142, label %6

6:                                                ; preds = %4
  %7 = getelementptr inbounds i8, ptr %0, i64 16
  %8 = load i32, ptr %7, align 8
  %9 = sext i32 %2 to i64
  %10 = getelementptr inbounds i8, ptr %1, i64 %9
  %11 = icmp slt i32 %2, 7
  %12 = getelementptr inbounds i8, ptr %10, i64 -7
  %13 = select i1 %11, ptr %1, ptr %12
  %14 = getelementptr inbounds i8, ptr %0, i64 32
  %15 = load ptr, ptr %14, align 8
  %16 = load i32, ptr %0, align 8
  %17 = zext i32 %16 to i64
  %18 = getelementptr inbounds i8, ptr %15, i64 %17
  %19 = getelementptr inbounds i8, ptr %0, i64 56
  %20 = load ptr, ptr %19, align 8
  %21 = getelementptr inbounds i8, ptr %0, i64 24
  %22 = load i32, ptr %21, align 8
  %23 = getelementptr inbounds i8, ptr %0, i64 28
  %24 = load i32, ptr %23, align 4
  %25 = ptrtoint ptr %18 to i64
  %26 = getelementptr inbounds i8, ptr %0, i64 4
  br label %27

27:                                               ; preds = %.critedge2, %6
  %.091 = phi ptr [ %1, %6 ], [ %.8, %.critedge2 ]
  %28 = ptrtoint ptr %.091 to i64
  %29 = and i64 %28, 7
  %.not124 = icmp ne i64 %29, 0
  %30 = icmp ult ptr %.091, %10
  %or.cond125 = select i1 %.not124, i1 %30, i1 false
  br i1 %or.cond125, label %.lr.ph, label %.critedge

.lr.ph:                                           ; preds = %27, %36
  %.1126 = phi ptr [ %37, %36 ], [ %.091, %27 ]
  %31 = load i8, ptr %.1126, align 1
  %32 = zext i8 %31 to i64
  %33 = getelementptr inbounds i8, ptr %20, i64 %32
  %34 = load i8, ptr %33, align 1
  %35 = icmp eq i8 %34, 0
  br i1 %35, label %36, label %.critedge.thread

36:                                               ; preds = %.lr.ph
  %37 = getelementptr inbounds i8, ptr %.1126, i64 1
  %38 = ptrtoint ptr %37 to i64
  %39 = and i64 %38, 7
  %.not = icmp ne i64 %39, 0
  %40 = icmp ult ptr %37, %10
  %or.cond = select i1 %.not, i1 %40, i1 false
  br i1 %or.cond, label %.lr.ph, label %.critedge, !llvm.loop !4

.critedge:                                        ; preds = %36, %27
  %.1.lcssa = phi ptr [ %.091, %27 ], [ %37, %36 ]
  %.lcssa116 = phi i64 [ %29, %27 ], [ %39, %36 ]
  %41 = icmp eq i64 %.lcssa116, 0
  %42 = icmp ult ptr %.1.lcssa, %13
  %or.cond142 = select i1 %41, i1 %42, i1 false
  br i1 %or.cond142, label %.lr.ph129, label %.critedge.thread

.lr.ph129:                                        ; preds = %.critedge, %99
  %.2128 = phi ptr [ %46, %99 ], [ %.1.lcssa, %.critedge ]
  %43 = load i32, ptr %.2128, align 4
  %44 = getelementptr inbounds i8, ptr %.2128, i64 4
  %45 = load i32, ptr %44, align 4
  %46 = getelementptr inbounds i8, ptr %.2128, i64 8
  %47 = sub i32 %43, %22
  %48 = add i32 %43, %24
  %49 = or i32 %47, %48
  %50 = sub i32 %45, %22
  %51 = or i32 %49, %50
  %52 = add i32 %45, %24
  %53 = or i32 %51, %52
  %54 = and i32 %53, -2139062144
  %.not102 = icmp eq i32 %54, 0
  %55 = lshr i32 %45, 8
  %56 = lshr i32 %45, 16
  %57 = lshr i32 %45, 24
  %58 = zext nneg i32 %57 to i64
  br i1 %.not102, label %99, label %59

59:                                               ; preds = %.lr.ph129
  %60 = lshr i32 %43, 24
  %61 = zext nneg i32 %60 to i64
  %62 = lshr i32 %43, 16
  %63 = lshr i32 %43, 8
  %64 = and i32 %43, 255
  %65 = zext nneg i32 %64 to i64
  %66 = getelementptr inbounds i8, ptr %20, i64 %65
  %67 = load i8, ptr %66, align 1
  %68 = and i32 %63, 255
  %69 = zext nneg i32 %68 to i64
  %70 = getelementptr inbounds i8, ptr %20, i64 %69
  %71 = load i8, ptr %70, align 1
  %72 = and i32 %62, 255
  %73 = zext nneg i32 %72 to i64
  %74 = getelementptr inbounds i8, ptr %20, i64 %73
  %75 = load i8, ptr %74, align 1
  %76 = getelementptr inbounds i8, ptr %20, i64 %61
  %77 = load i8, ptr %76, align 1
  %78 = or i8 %71, %67
  %79 = or i8 %78, %75
  %80 = or i8 %79, %77
  %.not103 = icmp eq i8 %80, 0
  br i1 %.not103, label %81, label %.critedge.thread

81:                                               ; preds = %59
  %82 = and i32 %45, 255
  %83 = zext nneg i32 %82 to i64
  %84 = getelementptr inbounds i8, ptr %20, i64 %83
  %85 = load i8, ptr %84, align 1
  %86 = and i32 %55, 255
  %87 = zext nneg i32 %86 to i64
  %88 = getelementptr inbounds i8, ptr %20, i64 %87
  %89 = load i8, ptr %88, align 1
  %90 = and i32 %56, 255
  %91 = zext nneg i32 %90 to i64
  %92 = getelementptr inbounds i8, ptr %20, i64 %91
  %93 = load i8, ptr %92, align 1
  %94 = getelementptr inbounds i8, ptr %20, i64 %58
  %95 = load i8, ptr %94, align 1
  %96 = or i8 %89, %85
  %97 = or i8 %96, %93
  %98 = or i8 %97, %95
  %.not104 = icmp eq i8 %98, 0
  br i1 %.not104, label %99, label %.critedge.thread.loopexit.split.loop.exit

99:                                               ; preds = %81, %.lr.ph129
  %100 = icmp ult ptr %46, %13
  br i1 %100, label %.lr.ph129, label %.critedge.thread, !llvm.loop !6

.critedge.thread.loopexit.split.loop.exit:        ; preds = %81
  %101 = getelementptr inbounds i8, ptr %.2128, i64 4
  br label %.critedge.thread

.critedge.thread:                                 ; preds = %.lr.ph, %59, %99, %.critedge.thread.loopexit.split.loop.exit, %.critedge
  %.3 = phi ptr [ %.1.lcssa, %.critedge ], [ %101, %.critedge.thread.loopexit.split.loop.exit ], [ %.2128, %59 ], [ %46, %99 ], [ %.1126, %.lr.ph ]
  %102 = icmp ult ptr %.3, %10
  br i1 %102, label %.lr.ph137, label %.thread

.lr.ph137:                                        ; preds = %.critedge.thread, %109
  %.0136 = phi ptr [ %113, %109 ], [ %18, %.critedge.thread ]
  %.4135 = phi ptr [ %110, %109 ], [ %.3, %.critedge.thread ]
  %103 = load i8, ptr %.4135, align 1
  %104 = zext i8 %103 to i64
  %105 = getelementptr inbounds i8, ptr %.0136, i64 %104
  %106 = load i8, ptr %105, align 1
  %107 = zext i8 %106 to i32
  %108 = icmp ugt i8 %106, -17
  br i1 %108, label %115, label %109

109:                                              ; preds = %.lr.ph137
  %110 = getelementptr inbounds i8, ptr %.4135, i64 1
  %111 = shl i32 %107, %8
  %112 = sext i32 %111 to i64
  %113 = getelementptr inbounds i8, ptr %18, i64 %112
  %114 = icmp ult ptr %110, %10
  br i1 %114, label %.lr.ph137, label %.thread.loopexit, !llvm.loop !7

115:                                              ; preds = %.lr.ph137
  %116 = ptrtoint ptr %.0136 to i64
  %117 = sub i64 %116, %25
  %118 = trunc i64 %117 to i32
  %119 = load i32, ptr %26, align 4
  %120 = icmp ugt i32 %119, %118
  br i1 %120, label %.critedge2, label %.preheader112

.preheader112:                                    ; preds = %115, %123
  %.6 = phi ptr [ %121, %123 ], [ %.4135, %115 ]
  %121 = getelementptr inbounds i8, ptr %.6, i64 -1
  %122 = icmp ugt ptr %121, %1
  br i1 %122, label %123, label %.critedge2

123:                                              ; preds = %.preheader112
  %124 = load i8, ptr %121, align 1
  %125 = and i8 %124, -64
  %126 = icmp eq i8 %125, -128
  br i1 %126, label %.preheader112, label %.critedge2, !llvm.loop !8

.thread.loopexit:                                 ; preds = %109
  %.pre = ptrtoint ptr %113 to i64
  br label %.thread

.thread:                                          ; preds = %.critedge.thread, %.thread.loopexit
  %.pre-phi = phi i64 [ %.pre, %.thread.loopexit ], [ %25, %.critedge.thread ]
  %.4.lcssa = phi ptr [ %110, %.thread.loopexit ], [ %.3, %.critedge.thread ]
  %127 = sub i64 %.pre-phi, %25
  %128 = trunc i64 %127 to i32
  %129 = load i32, ptr %26, align 4
  %130 = icmp ugt i32 %129, %128
  br i1 %130, label %.critedge2.thread, label %.preheader

.preheader:                                       ; preds = %.thread, %133
  %.7 = phi ptr [ %131, %133 ], [ %.4.lcssa, %.thread ]
  %131 = getelementptr inbounds i8, ptr %.7, i64 -1
  %132 = icmp ugt ptr %131, %1
  br i1 %132, label %133, label %.critedge2.thread

133:                                              ; preds = %.preheader
  %134 = load i8, ptr %131, align 1
  %135 = and i8 %134, -64
  %136 = icmp eq i8 %135, -128
  br i1 %136, label %.preheader, label %.critedge2.thread, !llvm.loop !9

.critedge2:                                       ; preds = %.preheader112, %123, %115
  %.8 = phi ptr [ %.4135, %115 ], [ %121, %123 ], [ %121, %.preheader112 ]
  %137 = icmp eq i8 %106, -3
  br i1 %137, label %27, label %.critedge2.thread

.critedge2.thread:                                ; preds = %.critedge2, %.preheader, %133, %.thread
  %.8111 = phi ptr [ %.4.lcssa, %.thread ], [ %131, %133 ], [ %131, %.preheader ], [ %.8, %.critedge2 ]
  %.294110 = phi i32 [ 241, %.thread ], [ 240, %133 ], [ 240, %.preheader ], [ %107, %.critedge2 ]
  %138 = ptrtoint ptr %.8111 to i64
  %139 = ptrtoint ptr %1 to i64
  %140 = sub i64 %138, %139
  %141 = trunc i64 %140 to i32
  store i32 %141, ptr %3, align 4
  br label %142

142:                                              ; preds = %4, %.critedge2.thread
  %.090 = phi i32 [ %.294110, %.critedge2.thread ], [ 241, %4 ]
  ret i32 %.090
}